; Function Attrs: inlinehint mustprogress nofree norecurse nosync nounwind willreturn memory(argmem: read) uwtable
define internal noundef float @_ZN2cv3dnn4utilL22caffe_norm_box_overlapERKNS1_14NormalizedBBoxES4_(ptr noundef nonnull readonly align 4 captures(none) dereferenceable(24) %0, ptr noundef nonnull readonly align 4 captures(none) dereferenceable(24) %1) #21 {
  %3 = load float, ptr %0, align 4, !tbaa !63
  %4 = load float, ptr %1, align 4, !tbaa !63
  %5 = fcmp olt float %3, %4
  %6 = select i1 %5, float %4, float %3
  %7 = getelementptr inbounds nuw i8, ptr %0, i64 4
  %8 = getelementptr inbounds nuw i8, ptr %1, i64 4
  %9 = load float, ptr %7, align 4, !tbaa !63
  %10 = load float, ptr %8, align 4, !tbaa !63
  %11 = fcmp olt float %9, %10
  %12 = select i1 %11, float %10, float %9
  %13 = getelementptr inbounds nuw i8, ptr %0, i64 8
  %14 = getelementptr inbounds nuw i8, ptr %1, i64 8
  %15 = load float, ptr %14, align 4, !tbaa !63
  %16 = load float, ptr %13, align 4, !tbaa !63
  %17 = fcmp olt float %15, %16
  %18 = select i1 %17, float %15, float %16
  %19 = getelementptr inbounds nuw i8, ptr %0, i64 12
  %20 = getelementptr inbounds nuw i8, ptr %1, i64 12
  %21 = load float, ptr %20, align 4, !tbaa !63
  %22 = load float, ptr %19, align 4, !tbaa !63
  %23 = fcmp olt float %21, %22
  %24 = select i1 %23, float %21, float %22
  %25 = fcmp olt float %18, %6
  %26 = fcmp olt float %24, %12
  %or.cond.i = select i1 %25, i1 true, i1 %26
  br i1 %or.cond.i, label %_ZN2cv3dnn24DetectionOutputLayerImpl14JaccardOverlapILb1EEEfRKNS0_4util14NormalizedBBoxES6_.exit, label %_ZN2cv3dnn24DetectionOutputLayerImpl8BBoxSizeERKNS0_4util14NormalizedBBoxEb.exit.i

_ZN2cv3dnn24DetectionOutputLayerImpl8BBoxSizeERKNS0_4util14NormalizedBBoxEb.exit.i: ; preds = %2
  %27 = fsub float %18, %6
  %28 = fsub float %24, %12
  %29 = fmul float %27, %28
  %30 = fcmp ogt float %29, 0.000000e+00
  br i1 %30, label %31, label %_ZN2cv3dnn24DetectionOutputLayerImpl14JaccardOverlapILb1EEEfRKNS0_4util14NormalizedBBoxES6_.exit

31:                                               ; preds = %_ZN2cv3dnn24DetectionOutputLayerImpl8BBoxSizeERKNS0_4util14NormalizedBBoxEb.exit.i
  %32 = fcmp olt float %16, %3
  %33 = fcmp olt float %22, %9
  %or.cond26.i = or i1 %32, %33
  br i1 %or.cond26.i, label %_ZN2cv3dnn24DetectionOutputLayerImpl8BBoxSizeERKNS0_4util14NormalizedBBoxEb.exit21.i, label %34

34:                                               ; preds = %31
  %35 = getelementptr inbounds nuw i8, ptr %0, i64 16
  %36 = load i8, ptr %35, align 4, !tbaa !188, !range !45, !noundef !65
  %37 = trunc nuw i8 %36 to i1
  br i1 %37, label %38, label %41

38:                                               ; preds = %34
  %39 = getelementptr inbounds nuw i8, ptr %0, i64 20
  %40 = load float, ptr %39, align 4, !tbaa !83
  br label %_ZN2cv3dnn24DetectionOutputLayerImpl8BBoxSizeERKNS0_4util14NormalizedBBoxEb.exit21.i

41:                                               ; preds = %34
  %42 = fsub float %16, %3
  %43 = fsub float %22, %9
  %44 = fmul float %42, %43
  br label %_ZN2cv3dnn24DetectionOutputLayerImpl8BBoxSizeERKNS0_4util14NormalizedBBoxEb.exit21.i

_ZN2cv3dnn24DetectionOutputLayerImpl8BBoxSizeERKNS0_4util14NormalizedBBoxEb.exit21.i: ; preds = %41, %38, %31
  %.0.i20.i = phi float [ %40, %38 ], [ %44, %41 ], [ 0.000000e+00, %31 ]
  %45 = fcmp olt float %15, %4
  %46 = fcmp olt float %21, %10
  %or.cond27.i = or i1 %45, %46
  br i1 %or.cond27.i, label %_ZN2cv3dnn24DetectionOutputLayerImpl8BBoxSizeERKNS0_4util14NormalizedBBoxEb.exit23.i, label %47

47:                                               ; preds = %_ZN2cv3dnn24DetectionOutputLayerImpl8BBoxSizeERKNS0_4util14NormalizedBBoxEb.exit21.i
  %48 = getelementptr inbounds nuw i8, ptr %1, i64 16
  %49 = load i8, ptr %48, align 4, !tbaa !188, !range !45, !noundef !65
  %50 = trunc nuw i8 %49 to i1
  br i1 %50, label %51, label %54

51:                                               ; preds = %47
  %52 = getelementptr inbounds nuw i8, ptr %1, i64 20
  %53 = load float, ptr %52, align 4, !tbaa !83
  br label %_ZN2cv3dnn24DetectionOutputLayerImpl8BBoxSizeERKNS0_4util14NormalizedBBoxEb.exit23.i

54:                                               ; preds = %47
  %55 = fsub float %15, %4
  %56 = fsub float %21, %10
  %57 = fmul float %55, %56
  br label %_ZN2cv3dnn24DetectionOutputLayerImpl8BBoxSizeERKNS0_4util14NormalizedBBoxEb.exit23.i

_ZN2cv3dnn24DetectionOutputLayerImpl8BBoxSizeERKNS0_4util14NormalizedBBoxEb.exit23.i: ; preds = %54, %51, %_ZN2cv3dnn24DetectionOutputLayerImpl8BBoxSizeERKNS0_4util14NormalizedBBoxEb.exit21.i
  %.0.i22.i = phi float [ %53, %51 ], [ %57, %54 ], [ 0.000000e+00, %_ZN2cv3dnn24DetectionOutputLayerImpl8BBoxSizeERKNS0_4util14NormalizedBBoxEb.exit21.i ]
  %58 = fadd float %.0.i20.i, %.0.i22.i
  %59 = fsub float %58, %29
  %60 = fdiv float %29, %59
  br label %_ZN2cv3dnn24DetectionOutputLayerImpl14JaccardOverlapILb1EEEfRKNS0_4util14NormalizedBBoxES6_.exit

_ZN2cv3dnn24DetectionOutputLayerImpl14JaccardOverlapILb1EEEfRKNS0_4util14NormalizedBBoxES6_.exit: ; preds = %2, %_ZN2cv3dnn24DetectionOutputLayerImpl8BBoxSizeERKNS0_4util14NormalizedBBoxEb.exit.i, %_ZN2cv3dnn24DetectionOutputLayerImpl8BBoxSizeERKNS0_4util14NormalizedBBoxEb.exit23.i
  %.0.i = phi float [ %60, %_ZN2cv3dnn24DetectionOutputLayerImpl8BBoxSizeERKNS0_4util14NormalizedBBoxEb.exit23.i ], [ 0.000000e+00, %_ZN2cv3dnn24DetectionOutputLayerImpl8BBoxSizeERKNS0_4util14NormalizedBBoxEb.exit.i ], [ 0.000000e+00, %2 ]
  ret float %.0.i
}